; Function Attrs: nounwind uwtable
define internal ptr @signal_getitimer(ptr noundef readonly captures(none) %0, ptr noundef %1) #2 {
  %3 = alloca %struct.itimerval, align 8
  %4 = alloca %struct.itimerval, align 8
  %5 = tail call i32 @PyLong_AsInt(ptr noundef %1) #15
  %6 = icmp eq i32 %5, -1
  br i1 %6, label %15, label %.split

.split:                                           ; preds = %2
  %7 = getelementptr i8, ptr %0, i64 32
  %.val6 = load ptr, ptr %7, align 8, !tbaa !202
  call void @llvm.lifetime.start.p0(i64 32, ptr nonnull %4) #15
  %8 = call i32 @getitimer(i32 noundef %5, ptr noundef nonnull %4) #15
  %.not.i = icmp eq i32 %8, 0
  br i1 %.not.i, label %13, label %9

9:                                                ; preds = %.split
  %10 = getelementptr inbounds nuw i8, ptr %.val6, i64 16
  %11 = load ptr, ptr %10, align 8, !tbaa !205
  %12 = tail call ptr @PyErr_SetFromErrno(ptr noundef %11) #15
  br label %signal_getitimer_impl.exit

13:                                               ; preds = %.split
  %14 = call fastcc ptr @itimer_retval(ptr noundef %4)
  br label %signal_getitimer_impl.exit

signal_getitimer_impl.exit:                       ; preds = %9, %13
  %.0.i = phi ptr [ null, %9 ], [ %14, %13 ]
  call void @llvm.lifetime.end.p0(i64 32, ptr nonnull %4) #15
  br label %25

15:                                               ; preds = %2
  %16 = tail call ptr @PyErr_Occurred() #15
  %.not = icmp eq ptr %16, null
  br i1 %.not, label %.split4, label %25

.split4:                                          ; preds = %15
  %17 = getelementptr i8, ptr %0, i64 32
  %.val = load ptr, ptr %17, align 8, !tbaa !202
  call void @llvm.lifetime.start.p0(i64 32, ptr nonnull %3) #15
  %18 = call i32 @getitimer(i32 noundef -1, ptr noundef nonnull %3) #15
  %.not.i7 = icmp eq i32 %18, 0
  br i1 %.not.i7, label %23, label %19

19:                                               ; preds = %.split4
  %20 = getelementptr inbounds nuw i8, ptr %.val, i64 16
  %21 = load ptr, ptr %20, align 8, !tbaa !205
  %22 = tail call ptr @PyErr_SetFromErrno(ptr noundef %21) #15
  br label %signal_getitimer_impl.exit9

23:                                               ; preds = %.split4
  %24 = call fastcc ptr @itimer_retval(ptr noundef %3)
  br label %signal_getitimer_impl.exit9

signal_getitimer_impl.exit9:                      ; preds = %19, %23
  %.0.i8 = phi ptr [ null, %19 ], [ %24, %23 ]
  call void @llvm.lifetime.end.p0(i64 32, ptr nonnull %3) #15
  br label %25

25:                                               ; preds = %signal_getitimer_impl.exit, %signal_getitimer_impl.exit9, %15
  %.0 = phi ptr [ null, %15 ], [ %.0.i, %signal_getitimer_impl.exit ], [ %.0.i8, %signal_getitimer_impl.exit9 ]
  ret ptr %.0
}